; Function Attrs: nounwind uwtable
define internal fastcc void @Wayland_SeatCancelTouch(ptr noundef readonly captures(none) %0, ptr noundef %1) unnamed_addr #0 {
  %3 = getelementptr inbounds nuw i8, ptr %1, i64 16
  %4 = load ptr, ptr %3, align 8
  %.not = icmp eq ptr %4, null
  br i1 %.not, label %52, label %5

5:                                                ; preds = %2
  %6 = load ptr, ptr @WAYLAND_wl_proxy_get_user_data, align 8
  %7 = tail call ptr %6(ptr noundef nonnull %4) #12
  %.not20 = icmp eq ptr %7, null
  br i1 %.not20, label %52, label %8

8:                                                ; preds = %5
  %9 = getelementptr inbounds nuw i8, ptr %1, i64 8
  %10 = load i32, ptr %9, align 8
  %11 = sext i32 %10 to i64
  %12 = add nsw i64 %11, 4807592602218004480
  %13 = bitcast i64 %12 to double
  %14 = fadd double %13, 0xC2B8000000000000
  %15 = getelementptr inbounds nuw i8, ptr %7, i64 312
  %16 = load i32, ptr %15, align 8
  %17 = sitofp i32 %16 to double
  %18 = fdiv double %14, %17
  %19 = fptrunc double %18 to float
  %20 = getelementptr inbounds nuw i8, ptr %1, i64 12
  %21 = load i32, ptr %20, align 4
  %22 = sext i32 %21 to i64
  %23 = add nsw i64 %22, 4807592602218004480
  %24 = bitcast i64 %23 to double
  %25 = fadd double %24, 0xC2B8000000000000
  %26 = getelementptr inbounds nuw i8, ptr %7, i64 316
  %27 = load i32, ptr %26, align 4
  %28 = sitofp i32 %27 to double
  %29 = fdiv double %25, %28
  %30 = fptrunc double %29 to float
  %31 = getelementptr inbounds nuw i8, ptr %0, i64 448
  %32 = load ptr, ptr %31, align 8
  %33 = ptrtoint ptr %32 to i64
  %34 = load i64, ptr %1, align 8
  %35 = add i64 %34, 1
  %36 = load ptr, ptr %7, align 8
  tail call void @SDL_SendTouch(i64 noundef 0, i64 noundef %33, i64 noundef %35, ptr noundef %36, i32 noundef 1795, float noundef %19, float noundef %30, float noundef 0.000000e+00) #12
  %37 = getelementptr inbounds nuw i8, ptr %7, i64 276
  %38 = load i32, ptr %37, align 4
  %39 = add nsw i32 %38, -1
  store i32 %39, ptr %37, align 4
  %40 = tail call ptr @SDL_GetMouseFocus_REAL() #12
  %41 = load ptr, ptr %7, align 8
  %42 = icmp eq ptr %40, %41
  br i1 %42, label %43, label %52

43:                                               ; preds = %8
  %44 = getelementptr inbounds nuw i8, ptr %7, i64 268
  %45 = load i32, ptr %44, align 4
  %.not21 = icmp eq i32 %45, 0
  br i1 %.not21, label %46, label %52

46:                                               ; preds = %43
  %47 = getelementptr inbounds nuw i8, ptr %7, i64 272
  %48 = load i32, ptr %47, align 8
  %.not22 = icmp eq i32 %48, 0
  br i1 %.not22, label %49, label %52

49:                                               ; preds = %46
  %50 = load i32, ptr %37, align 4
  %.not23 = icmp eq i32 %50, 0
  br i1 %.not23, label %51, label %52

51:                                               ; preds = %49
  tail call void @SDL_SetMouseFocus(ptr noundef null) #12
  br label %52

52:                                               ; preds = %5, %51, %49, %46, %43, %8, %2
  %53 = load ptr, ptr @WAYLAND_wl_list_remove, align 8
  %54 = getelementptr inbounds nuw i8, ptr %1, i64 24
  tail call void %53(ptr noundef nonnull %54) #12
  tail call void @SDL_free_REAL(ptr noundef nonnull %1) #12
  ret void
}